; Function Attrs: nounwind uwtable
define ptr @l_Lean_Linter_initFn____x40_Lean_Linter_UnusedVariables___hyg_1427____lambda__1___boxed(ptr noundef %0, ptr noundef %1, ptr noundef %2, ptr noundef %3) local_unnamed_addr #1 {
  %5 = getelementptr i8, ptr %2, i64 8
  %.val = load i64, ptr %5, align 8, !tbaa !12
  %6 = ptrtoint ptr %2 to i64
  %7 = and i64 %6, 1
  %.not = icmp eq i64 %7, 0
  br i1 %.not, label %8, label %lean_dec.exit12

8:                                                ; preds = %4
  %9 = load i32, ptr %2, align 4, !tbaa !8
  %10 = icmp sgt i32 %9, 1
  br i1 %10, label %11, label %13, !prof !11

11:                                               ; preds = %8
  %12 = add nsw i32 %9, -1
  store i32 %12, ptr %2, align 4, !tbaa !8
  br label %lean_dec.exit12

13:                                               ; preds = %8
  %.not.i = icmp eq i32 %9, 0
  br i1 %.not.i, label %lean_dec.exit12, label %14

14:                                               ; preds = %13
  tail call void @lean_dec_ref_cold(ptr noundef nonnull %2) #7
  br label %lean_dec.exit12

lean_dec.exit12:                                  ; preds = %14, %13, %11, %4
  %15 = tail call ptr @l_Lean_Syntax_getArg(ptr noundef %0, ptr noundef nonnull inttoptr (i64 9 to ptr)) #7
  %16 = tail call zeroext i8 @l_Lean_Syntax_matchesNull(ptr noundef %15, ptr noundef nonnull inttoptr (i64 1 to ptr)) #7
  %17 = icmp eq i8 %16, 0
  br i1 %17, label %l_Lean_Linter_initFn____x40_Lean_Linter_UnusedVariables___hyg_1427____lambda__1.exit, label %18

18:                                               ; preds = %lean_dec.exit12
  %19 = tail call ptr @l_Lean_Syntax_getArg(ptr noundef %0, ptr noundef nonnull inttoptr (i64 11 to ptr)) #7
  %20 = tail call zeroext i8 @l_Lean_Syntax_matchesNull(ptr noundef %19, ptr noundef nonnull inttoptr (i64 1 to ptr)) #7
  %21 = icmp eq i8 %20, 0
  br i1 %21, label %l_Lean_Linter_initFn____x40_Lean_Linter_UnusedVariables___hyg_1427____lambda__1.exit, label %lean_nat_lt.exit.i

lean_nat_lt.exit.i:                               ; preds = %18
  %22 = getelementptr i8, ptr %1, i64 8
  %.val.i = load i64, ptr %22, align 8, !tbaa !12
  %.mask.i = and i64 %.val.i, 9223372036854775807
  %.not.i19 = icmp eq i64 %.mask.i, 0
  br i1 %.not.i19, label %l_Lean_Linter_initFn____x40_Lean_Linter_UnusedVariables___hyg_1427____lambda__1.exit, label %lean_dec.exit.i

lean_dec.exit.i:                                  ; preds = %lean_nat_lt.exit.i
  %23 = tail call zeroext i8 @l_Array_anyMUnsafe_any___at_Lean_Linter_initFn____x40_Lean_Linter_UnusedVariables___hyg_1427____spec__2(ptr noundef nonnull readonly %1, i64 noundef %.val, i64 noundef %.mask.i)
  %24 = shl nuw nsw i8 %23, 1
  %25 = or disjoint i8 %24, 1
  %26 = zext nneg i8 %25 to i64
  br label %l_Lean_Linter_initFn____x40_Lean_Linter_UnusedVariables___hyg_1427____lambda__1.exit

l_Lean_Linter_initFn____x40_Lean_Linter_UnusedVariables___hyg_1427____lambda__1.exit: ; preds = %lean_dec.exit12, %18, %lean_nat_lt.exit.i, %lean_dec.exit.i
  %.0.i = phi i64 [ 1, %lean_dec.exit12 ], [ 1, %18 ], [ %26, %lean_dec.exit.i ], [ 1, %lean_nat_lt.exit.i ]
  %27 = ptrtoint ptr %3 to i64
  %28 = and i64 %27, 1
  %.not20 = icmp eq i64 %28, 0
  br i1 %.not20, label %29, label %lean_dec.exit11

29:                                               ; preds = %l_Lean_Linter_initFn____x40_Lean_Linter_UnusedVariables___hyg_1427____lambda__1.exit
  %30 = load i32, ptr %3, align 4, !tbaa !8
  %31 = icmp sgt i32 %30, 1
  br i1 %31, label %32, label %34, !prof !11

32:                                               ; preds = %29
  %33 = add nsw i32 %30, -1
  store i32 %33, ptr %3, align 4, !tbaa !8
  br label %lean_dec.exit11

34:                                               ; preds = %29
  %.not.i13 = icmp eq i32 %30, 0
  br i1 %.not.i13, label %lean_dec.exit11, label %35

35:                                               ; preds = %34
  tail call void @lean_dec_ref_cold(ptr noundef nonnull %3) #7
  br label %lean_dec.exit11

lean_dec.exit11:                                  ; preds = %35, %34, %32, %l_Lean_Linter_initFn____x40_Lean_Linter_UnusedVariables___hyg_1427____lambda__1.exit
  %36 = ptrtoint ptr %1 to i64
  %37 = and i64 %36, 1
  %.not21 = icmp eq i64 %37, 0
  br i1 %.not21, label %38, label %lean_dec.exit10

38:                                               ; preds = %lean_dec.exit11
  %39 = load i32, ptr %1, align 4, !tbaa !8
  %40 = icmp sgt i32 %39, 1
  br i1 %40, label %41, label %43, !prof !11

41:                                               ; preds = %38
  %42 = add nsw i32 %39, -1
  store i32 %42, ptr %1, align 4, !tbaa !8
  br label %lean_dec.exit10

43:                                               ; preds = %38
  %.not.i15 = icmp eq i32 %39, 0
  br i1 %.not.i15, label %lean_dec.exit10, label %44

44:                                               ; preds = %43
  tail call void @lean_dec_ref_cold(ptr noundef nonnull %1) #7
  br label %lean_dec.exit10

lean_dec.exit10:                                  ; preds = %44, %43, %41, %lean_dec.exit11
  %45 = ptrtoint ptr %0 to i64
  %46 = and i64 %45, 1
  %.not22 = icmp eq i64 %46, 0
  br i1 %.not22, label %47, label %lean_dec.exit

47:                                               ; preds = %lean_dec.exit10
  %48 = load i32, ptr %0, align 4, !tbaa !8
  %49 = icmp sgt i32 %48, 1
  br i1 %49, label %50, label %52, !prof !11

50:                                               ; preds = %47
  %51 = add nsw i32 %48, -1
  store i32 %51, ptr %0, align 4, !tbaa !8
  br label %lean_dec.exit

52:                                               ; preds = %47
  %.not.i17 = icmp eq i32 %48, 0
  br i1 %.not.i17, label %lean_dec.exit, label %53

53:                                               ; preds = %52
  tail call void @lean_dec_ref_cold(ptr noundef nonnull %0) #7
  br label %lean_dec.exit

lean_dec.exit:                                    ; preds = %53, %52, %50, %lean_dec.exit10
  %54 = inttoptr i64 %.0.i to ptr
  ret ptr %54
}